target datalayout = "e-m:e-p270:32:32-p271:32:32-p272:64:64-i64:64-i128:128-f80:128-n8:16:32:64-S128"
target triple = "x86_64-pc-linux-gnu"

; Function Attrs: nounwind uwtable
define internal void @sbr_hf_g_filt_c(ptr noundef %0, ptr noundef %1, ptr noundef %2, i32 noundef %3, i64 noundef %4) #1 {
  %6 = alloca ptr, align 8
  %7 = alloca ptr, align 8
  %8 = alloca ptr, align 8
  %9 = alloca i32, align 4
  %10 = alloca i64, align 8
  %11 = alloca i32, align 4
  store ptr %0, ptr %6, align 8, !tbaa !21
  store ptr %1, ptr %7, align 8, !tbaa !21
  store ptr %2, ptr %8, align 8, !tbaa !21
  store i32 %3, ptr %9, align 4, !tbaa !23
  store i64 %4, ptr %10, align 8, !tbaa !40
  call void @llvm.lifetime.start.p0(i64 4, ptr %11) #5
  store i32 0, ptr %11, align 4, !tbaa !23
  br label %12

12:                                               ; preds = %55, %5
  %13 = load i32, ptr %11, align 4, !tbaa !23
  %14 = load i32, ptr %9, align 4, !tbaa !23
  %15 = icmp slt i32 %13, %14
  br i1 %15, label %16, label %58

16:                                               ; preds = %12
  %17 = load ptr, ptr %7, align 8, !tbaa !21
  %18 = load i32, ptr %11, align 4, !tbaa !23
  %19 = sext i32 %18 to i64
  %20 = getelementptr inbounds [40 x [2 x float]], ptr %17, i64 %19
  %21 = load i64, ptr %10, align 8, !tbaa !40
  %22 = getelementptr inbounds [40 x [2 x float]], ptr %20, i64 0, i64 %21
  %23 = getelementptr inbounds [2 x float], ptr %22, i64 0, i64 0
  %24 = load float, ptr %23, align 4, !tbaa !25
  %25 = load ptr, ptr %8, align 8, !tbaa !21
  %26 = load i32, ptr %11, align 4, !tbaa !23
  %27 = sext i32 %26 to i64
  %28 = getelementptr inbounds float, ptr %25, i64 %27
  %29 = load float, ptr %28, align 4, !tbaa !25
  %30 = fmul nsz float %24, %29
  %31 = load ptr, ptr %6, align 8, !tbaa !21
  %32 = load i32, ptr %11, align 4, !tbaa !23
  %33 = sext i32 %32 to i64
  %34 = getelementptr inbounds [2 x float], ptr %31, i64 %33
  %35 = getelementptr inbounds [2 x float], ptr %34, i64 0, i64 0
  store float %30, ptr %35, align 4, !tbaa !25
  %36 = load ptr, ptr %7, align 8, !tbaa !21
  %37 = load i32, ptr %11, align 4, !tbaa !23
  %38 = sext i32 %37 to i64
  %39 = getelementptr inbounds [40 x [2 x float]], ptr %36, i64 %38
  %40 = load i64, ptr %10, align 8, !tbaa !40
  %41 = getelementptr inbounds [40 x [2 x float]], ptr %39, i64 0, i64 %40
  %42 = getelementptr inbounds [2 x float], ptr %41, i64 0, i64 1
  %43 = load float, ptr %42, align 4, !tbaa !25
  %44 = load ptr, ptr %8, align 8, !tbaa !21
  %45 = load i32, ptr %11, align 4, !tbaa !23
  %46 = sext i32 %45 to i64
  %47 = getelementptr inbounds float, ptr %44, i64 %46
  %48 = load float, ptr %47, align 4, !tbaa !25
  %49 = fmul nsz float %43, %48
  %50 = load ptr, ptr %6, align 8, !tbaa !21
  %51 = load i32, ptr %11, align 4, !tbaa !23
  %52 = sext i32 %51 to i64
  %53 = getelementptr inbounds [2 x float], ptr %50, i64 %52
  %54 = getelementptr inbounds [2 x float], ptr %53, i64 0, i64 1
  store float %49, ptr %54, align 4, !tbaa !25
  br label %55

55:                                               ; preds = %16
  %56 = load i32, ptr %11, align 4, !tbaa !23
  %57 = add nsw i32 %56, 1
  store i32 %57, ptr %11, align 4, !tbaa !23
  br label %12, !llvm.loop !42

58:                                               ; preds = %12
  call void @llvm.lifetime.end.p0(i64 4, ptr %11) #5
  ret void
}